target datalayout = "e-m:e-p270:32:32-p271:32:32-p272:64:64-i64:64-i128:128-f80:128-n8:16:32:64-S128"
target triple = "x86_64-pc-linux-gnu"

%struct.RBasic = type { i64, i64 }
%struct.branch_coverage_result_builder = type { i32, i64, i64, i64 }
%struct.RArray = type { %struct.RBasic, %union.anon.12 }
%union.anon.12 = type { %struct.anon.13 }
%struct.anon.13 = type { i64, %union.anon.14, ptr }
%union.anon.14 = type { i64 }

@.str.13 = private unnamed_addr constant [6 x i8] c"lines\00", align 1
@.str.15 = private unnamed_addr constant [14 x i8] c"oneshot_lines\00", align 1
@.str.17 = private unnamed_addr constant [9 x i8] c"branches\00", align 1
@.str.19 = private unnamed_addr constant [8 x i8] c"methods\00", align 1
@current_mode = internal global i32 0, align 4
@coverage_peek_result_i.rbimpl_id = internal global i64 0, align 8
@coverage_peek_result_i.rbimpl_id.40 = internal global i64 0, align 8
@coverage_peek_result_i.rbimpl_id.41 = internal global i64 0, align 8

; Function Attrs: inlinehint nounwind sspstrong willreturn memory(read) uwtable
define internal i64 @RB_FL_TEST_RAW(i64 noundef %0, i64 noundef %1) #5 {
  %3 = alloca i64, align 8
  %4 = alloca i64, align 8
  store i64 %0, ptr %3, align 8, !tbaa !6
  store i64 %1, ptr %4, align 8, !tbaa !6
  %5 = load i64, ptr %3, align 8, !tbaa !6
  %6 = inttoptr i64 %5 to ptr
  %7 = getelementptr inbounds nuw %struct.RBasic, ptr %6, i32 0, i32 0
  %8 = load i64, ptr %7, align 8, !tbaa !29
  %9 = load i64, ptr %4, align 8, !tbaa !6
  %10 = and i64 %8, %9
  ret i64 %10
}

; Function Attrs: inlinehint nounwind sspstrong willreturn memory(read) uwtable
define internal zeroext i1 @RB_FL_ANY_RAW(i64 noundef %0, i64 noundef %1) #5 {
  %3 = alloca i64, align 8
  %4 = alloca i64, align 8
  store i64 %0, ptr %3, align 8, !tbaa !6
  store i64 %1, ptr %4, align 8, !tbaa !6
  %5 = load i64, ptr %3, align 8, !tbaa !6
  %6 = load i64, ptr %4, align 8, !tbaa !6
  %7 = call i64 @RB_FL_TEST_RAW(i64 noundef %5, i64 noundef %6) #20
  %8 = icmp ne i64 %7, 0
  ret i1 %8
}

; Function Attrs: inlinehint nounwind sspstrong willreturn memory(read) uwtable
define internal i64 @rb_intern_const(ptr noundef nonnull %0) #5 {
  %2 = alloca ptr, align 8
  %3 = alloca i64, align 8
  store ptr %0, ptr %2, align 8, !tbaa !15
  call void @llvm.lifetime.start.p0(i64 8, ptr %3) #16
  %4 = load ptr, ptr %2, align 8, !tbaa !15
  %5 = call i64 @strlen(ptr noundef %4) #20
  store i64 %5, ptr %3, align 8, !tbaa !6
  %6 = load ptr, ptr %2, align 8, !tbaa !15
  %7 = load i64, ptr %3, align 8, !tbaa !6
  %8 = call i64 @rb_intern2(ptr noundef %6, i64 noundef %7)
  call void @llvm.lifetime.end.p0(i64 8, ptr %3) #16
  ret i64 %8
}

; Function Attrs: inlinehint nounwind sspstrong willreturn memory(read) uwtable
define internal ptr @rb_array_const_ptr(i64 noundef %0) #5 {
  %2 = alloca ptr, align 8
  %3 = alloca i64, align 8
  store i64 %0, ptr %3, align 8, !tbaa !6
  %4 = load i64, ptr %3, align 8, !tbaa !6
  %5 = call zeroext i1 @RB_FL_ANY_RAW(i64 noundef %4, i64 noundef 8192) #20
  br i1 %5, label %6, label %11

6:                                                ; preds = %1
  %7 = load i64, ptr %3, align 8, !tbaa !6
  %8 = inttoptr i64 %7 to ptr
  %9 = getelementptr inbounds nuw %struct.RArray, ptr %8, i32 0, i32 1
  %10 = getelementptr inbounds [1 x i64], ptr %9, i64 0, i64 0
  store ptr %10, ptr %2, align 8
  br label %17

11:                                               ; preds = %1
  %12 = load i64, ptr %3, align 8, !tbaa !6
  %13 = inttoptr i64 %12 to ptr
  %14 = getelementptr inbounds nuw %struct.RArray, ptr %13, i32 0, i32 1
  %15 = getelementptr inbounds nuw %struct.anon.13, ptr %14, i32 0, i32 2
  %16 = load ptr, ptr %15, align 8, !tbaa !28
  store ptr %16, ptr %2, align 8
  br label %17

17:                                               ; preds = %11, %6
  %18 = load ptr, ptr %2, align 8
  ret ptr %18
}

; Function Attrs: nounwind sspstrong uwtable
define internal i64 @branch_coverage(i64 noundef %0) #0 {
  %2 = alloca i64, align 8
  %3 = alloca i64, align 8
  %4 = alloca %struct.branch_coverage_result_builder, align 8
  store i64 %0, ptr %2, align 8, !tbaa !6
  call void @llvm.lifetime.start.p0(i64 8, ptr %3) #16
  %5 = load i64, ptr %2, align 8, !tbaa !6
  %6 = call i64 @RARRAY_AREF(i64 noundef %5, i64 noundef 0) #20
  store i64 %6, ptr %3, align 8, !tbaa !6
  call void @llvm.lifetime.start.p0(i64 32, ptr %4) #16
  %7 = getelementptr inbounds nuw %struct.branch_coverage_result_builder, ptr %4, i32 0, i32 0
  store i32 0, ptr %7, align 8, !tbaa !41
  %8 = call i64 @rb_hash_new()
  %9 = getelementptr inbounds nuw %struct.branch_coverage_result_builder, ptr %4, i32 0, i32 1
  store i64 %8, ptr %9, align 8, !tbaa !43
  %10 = load i64, ptr %2, align 8, !tbaa !6
  %11 = call i64 @RARRAY_AREF(i64 noundef %10, i64 noundef 1) #20
  %12 = getelementptr inbounds nuw %struct.branch_coverage_result_builder, ptr %4, i32 0, i32 3
  store i64 %11, ptr %12, align 8, !tbaa !44
  %13 = load i64, ptr %3, align 8, !tbaa !6
  %14 = ptrtoint ptr %4 to i64
  call void @rb_hash_foreach(i64 noundef %13, ptr noundef @branch_coverage_i, i64 noundef %14)
  %15 = getelementptr inbounds nuw %struct.branch_coverage_result_builder, ptr %4, i32 0, i32 1
  %16 = load i64, ptr %15, align 8, !tbaa !43
  call void @llvm.lifetime.end.p0(i64 32, ptr %4) #16
  call void @llvm.lifetime.end.p0(i64 8, ptr %3) #16
  ret i64 %16
}

; Function Attrs: inlinehint nounwind sspstrong memory(argmem: readwrite, inaccessiblemem: readwrite) uwtable
define internal i64 @rbimpl_intern_const(ptr noundef nonnull %0, ptr noundef nonnull %1) #4 {
  %3 = alloca ptr, align 8
  %4 = alloca ptr, align 8
  store ptr %0, ptr %3, align 8, !tbaa !12
  store ptr %1, ptr %4, align 8, !tbaa !15
  br label %5

5:                                                ; preds = %10, %2
  %6 = load ptr, ptr %3, align 8, !tbaa !12
  %7 = load i64, ptr %6, align 8, !tbaa !6
  %8 = icmp ne i64 %7, 0
  %9 = xor i1 %8, true
  br i1 %9, label %10, label %14

10:                                               ; preds = %5
  %11 = load ptr, ptr %4, align 8, !tbaa !15
  %12 = call i64 @rb_intern_const(ptr noundef %11) #20
  %13 = load ptr, ptr %3, align 8, !tbaa !12
  store i64 %12, ptr %13, align 8, !tbaa !6
  br label %5, !llvm.loop !17

14:                                               ; preds = %5
  %15 = load ptr, ptr %3, align 8, !tbaa !12
  %16 = load i64, ptr %15, align 8, !tbaa !6
  ret i64 %16
}

; Function Attrs: inlinehint nounwind sspstrong willreturn memory(read) uwtable
define internal i64 @RARRAY_AREF(i64 noundef %0, i64 noundef %1) #5 {
  %3 = alloca i64, align 8
  %4 = alloca i64, align 8
  %5 = alloca i64, align 8
  store i64 %0, ptr %3, align 8, !tbaa !6
  store i64 %1, ptr %4, align 8, !tbaa !6
  call void @llvm.lifetime.start.p0(i64 8, ptr %5) #16
  %6 = load i64, ptr %3, align 8, !tbaa !6
  %7 = call ptr @rb_array_const_ptr(i64 noundef %6) #20
  %8 = load i64, ptr %4, align 8, !tbaa !6
  %9 = getelementptr inbounds i64, ptr %7, i64 %8
  %10 = load i64, ptr %9, align 8, !tbaa !6
  store i64 %10, ptr %5, align 8, !tbaa !6
  %11 = load i64, ptr %5, align 8, !tbaa !6
  call void @llvm.lifetime.end.p0(i64 8, ptr %5) #16
  ret i64 %11
}

; Function Attrs: nounwind sspstrong uwtable
define internal i32 @coverage_peek_result_i(i64 noundef %0, i64 noundef %1, i64 noundef %2) #0 {
  %4 = alloca i64, align 8
  %5 = alloca i64, align 8
  %6 = alloca i64, align 8
  %7 = alloca i64, align 8
  %8 = alloca i64, align 8
  %9 = alloca i64, align 8
  %10 = alloca i64, align 8
  %11 = alloca i64, align 8
  %12 = alloca i64, align 8
  %13 = alloca ptr, align 8
  %14 = alloca i64, align 8
  %15 = alloca i64, align 8
  %16 = alloca i64, align 8
  %17 = alloca i64, align 8
  store i64 %0, ptr %4, align 8, !tbaa !6
  store i64 %1, ptr %5, align 8, !tbaa !6
  store i64 %2, ptr %6, align 8, !tbaa !6
  call void @llvm.lifetime.start.p0(i64 8, ptr %7) #16
  %18 = load i64, ptr %4, align 8, !tbaa !6
  store i64 %18, ptr %7, align 8, !tbaa !6
  call void @llvm.lifetime.start.p0(i64 8, ptr %8) #16
  %19 = load i64, ptr %5, align 8, !tbaa !6
  store i64 %19, ptr %8, align 8, !tbaa !6
  call void @llvm.lifetime.start.p0(i64 8, ptr %9) #16
  %20 = load i64, ptr %6, align 8, !tbaa !6
  store i64 %20, ptr %9, align 8, !tbaa !6
  %21 = load i32, ptr @current_mode, align 4, !tbaa !10
  %22 = icmp eq i32 %21, 0
  br i1 %22, label %23, label %30

23:                                               ; preds = %3
  call void @llvm.lifetime.start.p0(i64 8, ptr %10) #16
  %24 = load i64, ptr %8, align 8, !tbaa !6
  %25 = call i64 @RARRAY_AREF(i64 noundef %24, i64 noundef 0) #20
  %26 = call i64 @rb_ary_dup(i64 noundef %25)
  store i64 %26, ptr %10, align 8, !tbaa !6
  %27 = load i64, ptr %10, align 8, !tbaa !6
  %28 = call i64 @rb_ary_freeze(i64 noundef %27)
  %29 = load i64, ptr %10, align 8, !tbaa !6
  store i64 %29, ptr %8, align 8, !tbaa !6
  call void @llvm.lifetime.end.p0(i64 8, ptr %10) #16
  br label %86

30:                                               ; preds = %3
  call void @llvm.lifetime.start.p0(i64 8, ptr %11) #16
  %31 = call i64 @rb_hash_new()
  store i64 %31, ptr %11, align 8, !tbaa !6
  %32 = load i32, ptr @current_mode, align 4, !tbaa !10
  %33 = and i32 %32, 1
  %34 = icmp ne i32 %33, 0
  br i1 %34, label %35, label %59

35:                                               ; preds = %30
  call void @llvm.lifetime.start.p0(i64 8, ptr %12) #16
  %36 = load i64, ptr %8, align 8, !tbaa !6
  %37 = call i64 @RARRAY_AREF(i64 noundef %36, i64 noundef 0) #20
  store i64 %37, ptr %12, align 8, !tbaa !6
  call void @llvm.lifetime.start.p0(i64 8, ptr %13) #16
  %38 = load i32, ptr @current_mode, align 4, !tbaa !10
  %39 = and i32 %38, 8
  %40 = icmp ne i32 %39, 0
  %41 = select i1 %40, ptr @.str.15, ptr @.str.13
  store ptr %41, ptr %13, align 8, !tbaa !15
  %42 = load i64, ptr %12, align 8, !tbaa !6
  %43 = call i64 @rb_ary_dup(i64 noundef %42)
  store i64 %43, ptr %12, align 8, !tbaa !6
  %44 = load i64, ptr %12, align 8, !tbaa !6
  %45 = call i64 @rb_ary_freeze(i64 noundef %44)
  %46 = load i64, ptr %11, align 8, !tbaa !6
  br i1 false, label %47, label %51

47:                                               ; preds = %35
  %48 = load ptr, ptr %13, align 8, !tbaa !15
  %49 = call i64 @rbimpl_intern_const(ptr noundef @coverage_peek_result_i.rbimpl_id, ptr noundef %48) #17
  store i64 %49, ptr %14, align 8, !tbaa !6
  %50 = load i64, ptr %14, align 8, !tbaa !6
  br label %54

51:                                               ; preds = %35
  %52 = load ptr, ptr %13, align 8, !tbaa !15
  %53 = call i64 @rb_intern(ptr noundef %52)
  br label %54

54:                                               ; preds = %51, %47
  %55 = phi i64 [ %50, %47 ], [ %53, %51 ]
  %56 = call i64 @rb_id2sym(i64 noundef %55)
  %57 = load i64, ptr %12, align 8, !tbaa !6
  %58 = call i64 @rb_hash_aset(i64 noundef %46, i64 noundef %56, i64 noundef %57)
  call void @llvm.lifetime.end.p0(i64 8, ptr %13) #16
  call void @llvm.lifetime.end.p0(i64 8, ptr %12) #16
  br label %59

59:                                               ; preds = %54, %30
  %60 = load i32, ptr @current_mode, align 4, !tbaa !10
  %61 = and i32 %60, 2
  %62 = icmp ne i32 %61, 0
  br i1 %62, label %63, label %73

63:                                               ; preds = %59
  call void @llvm.lifetime.start.p0(i64 8, ptr %15) #16
  %64 = load i64, ptr %8, align 8, !tbaa !6
  %65 = call i64 @RARRAY_AREF(i64 noundef %64, i64 noundef 1) #20
  store i64 %65, ptr %15, align 8, !tbaa !6
  %66 = load i64, ptr %11, align 8, !tbaa !6
  %67 = call i64 @rbimpl_intern_const(ptr noundef @coverage_peek_result_i.rbimpl_id.40, ptr noundef @.str.17) #17
  store i64 %67, ptr %16, align 8, !tbaa !6
  %68 = load i64, ptr %16, align 8, !tbaa !6
  %69 = call i64 @rb_id2sym(i64 noundef %68)
  %70 = load i64, ptr %15, align 8, !tbaa !6
  %71 = call i64 @branch_coverage(i64 noundef %70)
  %72 = call i64 @rb_hash_aset(i64 noundef %66, i64 noundef %69, i64 noundef %71)
  call void @llvm.lifetime.end.p0(i64 8, ptr %15) #16
  br label %73

73:                                               ; preds = %63, %59
  %74 = load i32, ptr @current_mode, align 4, !tbaa !10
  %75 = and i32 %74, 4
  %76 = icmp ne i32 %75, 0
  br i1 %76, label %77, label %84

77:                                               ; preds = %73
  %78 = load i64, ptr %11, align 8, !tbaa !6
  %79 = call i64 @rbimpl_intern_const(ptr noundef @coverage_peek_result_i.rbimpl_id.41, ptr noundef @.str.19) #17
  store i64 %79, ptr %17, align 8, !tbaa !6
  %80 = load i64, ptr %17, align 8, !tbaa !6
  %81 = call i64 @rb_id2sym(i64 noundef %80)
  %82 = call i64 @rb_hash_new()
  %83 = call i64 @rb_hash_aset(i64 noundef %78, i64 noundef %81, i64 noundef %82)
  br label %84

84:                                               ; preds = %77, %73
  %85 = load i64, ptr %11, align 8, !tbaa !6
  store i64 %85, ptr %8, align 8, !tbaa !6
  call void @llvm.lifetime.end.p0(i64 8, ptr %11) #16
  br label %86

86:                                               ; preds = %84, %23
  %87 = load i64, ptr %9, align 8, !tbaa !6
  %88 = load i64, ptr %7, align 8, !tbaa !6
  %89 = load i64, ptr %8, align 8, !tbaa !6
  %90 = call i64 @rb_hash_aset(i64 noundef %87, i64 noundef %88, i64 noundef %89)
  call void @llvm.lifetime.end.p0(i64 8, ptr %9) #16
  call void @llvm.lifetime.end.p0(i64 8, ptr %8) #16
  call void @llvm.lifetime.end.p0(i64 8, ptr %7) #16
  ret i32 0
}