; Function Attrs: nounwind sspstrong uwtable
define internal noundef i32 @coverage_peek_result_i(i64 noundef %0, i64 noundef %1, i64 noundef %2) #0 {
  %4 = alloca %struct.branch_coverage_result_builder, align 8
  %5 = load i32, ptr @current_mode, align 4, !tbaa !6
  %6 = icmp eq i32 %5, 0
  br i1 %6, label %7, label %19

7:                                                ; preds = %3
  %8 = inttoptr i64 %1 to ptr
  %9 = load i64, ptr %8, align 8, !tbaa !14
  %10 = and i64 %9, 8192
  %.not.i.i = icmp eq i64 %10, 0
  br i1 %.not.i.i, label %13, label %11

11:                                               ; preds = %7
  %12 = getelementptr inbounds nuw i8, ptr %8, i64 16
  br label %RARRAY_AREF.exit

13:                                               ; preds = %7
  %14 = getelementptr inbounds nuw i8, ptr %8, i64 32
  %15 = load ptr, ptr %14, align 8, !tbaa !16
  br label %RARRAY_AREF.exit

RARRAY_AREF.exit:                                 ; preds = %11, %13
  %.0.i.i = phi ptr [ %12, %11 ], [ %15, %13 ]
  %16 = load i64, ptr %.0.i.i, align 8, !tbaa !10
  %17 = tail call i64 @rb_ary_dup(i64 noundef %16) #9
  %18 = tail call i64 @rb_ary_freeze(i64 noundef %17) #9
  br label %88

19:                                               ; preds = %3
  %20 = tail call i64 @rb_hash_new() #9
  %21 = load i32, ptr @current_mode, align 4, !tbaa !6
  %22 = and i32 %21, 1
  %.not = icmp eq i32 %22, 0
  br i1 %.not, label %40, label %23

23:                                               ; preds = %19
  %24 = inttoptr i64 %1 to ptr
  %25 = load i64, ptr %24, align 8, !tbaa !14
  %26 = and i64 %25, 8192
  %.not.i.i24 = icmp eq i64 %26, 0
  br i1 %.not.i.i24, label %29, label %27

27:                                               ; preds = %23
  %28 = getelementptr inbounds nuw i8, ptr %24, i64 16
  br label %RARRAY_AREF.exit26

29:                                               ; preds = %23
  %30 = getelementptr inbounds nuw i8, ptr %24, i64 32
  %31 = load ptr, ptr %30, align 8, !tbaa !16
  br label %RARRAY_AREF.exit26

RARRAY_AREF.exit26:                               ; preds = %27, %29
  %.0.i.i25 = phi ptr [ %28, %27 ], [ %31, %29 ]
  %32 = load i64, ptr %.0.i.i25, align 8, !tbaa !10
  %33 = and i32 %21, 8
  %.not21 = icmp eq i32 %33, 0
  %34 = select i1 %.not21, ptr @.str.13, ptr @.str.15
  %35 = tail call i64 @rb_ary_dup(i64 noundef %32) #9
  %36 = tail call i64 @rb_ary_freeze(i64 noundef %35) #9
  %37 = tail call i64 @rb_intern(ptr noundef nonnull %34) #9
  %38 = tail call i64 @rb_id2sym(i64 noundef %37) #9
  %39 = tail call i64 @rb_hash_aset(i64 noundef %20, i64 noundef %38, i64 noundef %35) #9
  %.pre = load i32, ptr @current_mode, align 4, !tbaa !6
  br label %40

40:                                               ; preds = %RARRAY_AREF.exit26, %19
  %41 = phi i32 [ %.pre, %RARRAY_AREF.exit26 ], [ %21, %19 ]
  %42 = and i32 %41, 2
  %.not22 = icmp eq i32 %42, 0
  br i1 %.not22, label %80, label %43

43:                                               ; preds = %40
  %44 = inttoptr i64 %1 to ptr
  %45 = load i64, ptr %44, align 8, !tbaa !14
  %46 = and i64 %45, 8192
  %.not.i.i27 = icmp eq i64 %46, 0
  br i1 %.not.i.i27, label %49, label %47

47:                                               ; preds = %43
  %48 = getelementptr inbounds nuw i8, ptr %44, i64 16
  br label %RARRAY_AREF.exit29

49:                                               ; preds = %43
  %50 = getelementptr inbounds nuw i8, ptr %44, i64 32
  %51 = load ptr, ptr %50, align 8, !tbaa !16
  br label %RARRAY_AREF.exit29

RARRAY_AREF.exit29:                               ; preds = %47, %49
  %.0.i.i28 = phi ptr [ %48, %47 ], [ %51, %49 ]
  %52 = getelementptr inbounds nuw i8, ptr %.0.i.i28, i64 8
  %53 = load i64, ptr %52, align 8, !tbaa !10
  %.pr.i = load i64, ptr @coverage_peek_result_i.rbimpl_id.40, align 8, !tbaa !10
  %.not4.i = icmp eq i64 %.pr.i, 0
  br i1 %.not4.i, label %.lr.ph.i, label %rbimpl_intern_const.exit

.lr.ph.i:                                         ; preds = %RARRAY_AREF.exit29, %.lr.ph.i
  %54 = tail call i64 @rb_intern2(ptr noundef nonnull @.str.17, i64 noundef 8) #9
  store i64 %54, ptr @coverage_peek_result_i.rbimpl_id.40, align 8, !tbaa !10
  %.not.i = icmp eq i64 %54, 0
  br i1 %.not.i, label %.lr.ph.i, label %rbimpl_intern_const.exit, !llvm.loop !12

rbimpl_intern_const.exit:                         ; preds = %.lr.ph.i, %RARRAY_AREF.exit29
  %.lcssa.i = phi i64 [ %.pr.i, %RARRAY_AREF.exit29 ], [ %54, %.lr.ph.i ]
  %55 = tail call i64 @rb_id2sym(i64 noundef %.lcssa.i) #9
  %56 = inttoptr i64 %53 to ptr
  %57 = load i64, ptr %56, align 8, !tbaa !14
  %58 = and i64 %57, 8192
  %.not.i.i.i = icmp eq i64 %58, 0
  br i1 %.not.i.i.i, label %61, label %59

59:                                               ; preds = %rbimpl_intern_const.exit
  %60 = getelementptr inbounds nuw i8, ptr %56, i64 16
  br label %RARRAY_AREF.exit.i

61:                                               ; preds = %rbimpl_intern_const.exit
  %62 = getelementptr inbounds nuw i8, ptr %56, i64 32
  %63 = load ptr, ptr %62, align 8, !tbaa !16
  br label %RARRAY_AREF.exit.i

RARRAY_AREF.exit.i:                               ; preds = %61, %59
  %.0.i.i.i = phi ptr [ %60, %59 ], [ %63, %61 ]
  %64 = load i64, ptr %.0.i.i.i, align 8, !tbaa !10
  call void @llvm.lifetime.start.p0(i64 32, ptr nonnull %4) #9
  store i32 0, ptr %4, align 8, !tbaa !17
  %65 = tail call i64 @rb_hash_new() #9
  %66 = getelementptr inbounds nuw i8, ptr %4, i64 8
  store i64 %65, ptr %66, align 8, !tbaa !19
  %67 = load i64, ptr %56, align 8, !tbaa !14
  %68 = and i64 %67, 8192
  %.not.i.i3.i = icmp eq i64 %68, 0
  br i1 %.not.i.i3.i, label %71, label %69

69:                                               ; preds = %RARRAY_AREF.exit.i
  %70 = getelementptr inbounds nuw i8, ptr %56, i64 16
  br label %branch_coverage.exit

71:                                               ; preds = %RARRAY_AREF.exit.i
  %72 = getelementptr inbounds nuw i8, ptr %56, i64 32
  %73 = load ptr, ptr %72, align 8, !tbaa !16
  br label %branch_coverage.exit

branch_coverage.exit:                             ; preds = %69, %71
  %.0.i.i4.i = phi ptr [ %70, %69 ], [ %73, %71 ]
  %74 = getelementptr inbounds nuw i8, ptr %.0.i.i4.i, i64 8
  %75 = load i64, ptr %74, align 8, !tbaa !10
  %76 = getelementptr inbounds nuw i8, ptr %4, i64 24
  store i64 %75, ptr %76, align 8, !tbaa !20
  %77 = ptrtoint ptr %4 to i64
  call void @rb_hash_foreach(i64 noundef %64, ptr noundef nonnull @branch_coverage_i, i64 noundef %77) #9
  %78 = load i64, ptr %66, align 8, !tbaa !19
  call void @llvm.lifetime.end.p0(i64 32, ptr nonnull %4) #9
  %79 = call i64 @rb_hash_aset(i64 noundef %20, i64 noundef %55, i64 noundef %78) #9
  %.pre38 = load i32, ptr @current_mode, align 4, !tbaa !6
  br label %80

80:                                               ; preds = %branch_coverage.exit, %40
  %81 = phi i32 [ %.pre38, %branch_coverage.exit ], [ %41, %40 ]
  %82 = and i32 %81, 4
  %.not23 = icmp eq i32 %82, 0
  br i1 %.not23, label %88, label %83

83:                                               ; preds = %80
  %.pr.i30 = load i64, ptr @coverage_peek_result_i.rbimpl_id.41, align 8, !tbaa !10
  %.not4.i31 = icmp eq i64 %.pr.i30, 0
  br i1 %.not4.i31, label %.lr.ph.i33, label %rbimpl_intern_const.exit35

.lr.ph.i33:                                       ; preds = %83, %.lr.ph.i33
  %84 = call i64 @rb_intern2(ptr noundef nonnull @.str.19, i64 noundef 7) #9
  store i64 %84, ptr @coverage_peek_result_i.rbimpl_id.41, align 8, !tbaa !10
  %.not.i34 = icmp eq i64 %84, 0
  br i1 %.not.i34, label %.lr.ph.i33, label %rbimpl_intern_const.exit35, !llvm.loop !12

rbimpl_intern_const.exit35:                       ; preds = %.lr.ph.i33, %83
  %.lcssa.i32 = phi i64 [ %.pr.i30, %83 ], [ %84, %.lr.ph.i33 ]
  %85 = call i64 @rb_id2sym(i64 noundef %.lcssa.i32) #9
  %86 = call i64 @rb_hash_new() #9
  %87 = call i64 @rb_hash_aset(i64 noundef %20, i64 noundef %85, i64 noundef %86) #9
  br label %88

88:                                               ; preds = %80, %rbimpl_intern_const.exit35, %RARRAY_AREF.exit
  %.0 = phi i64 [ %17, %RARRAY_AREF.exit ], [ %20, %rbimpl_intern_const.exit35 ], [ %20, %80 ]
  %89 = call i64 @rb_hash_aset(i64 noundef %2, i64 noundef %0, i64 noundef %.0) #9
  ret i32 0
}